target datalayout = "e-m:e-p270:32:32-p271:32:32-p272:64:64-i64:64-i128:128-f80:128-n8:16:32:64-S128"
target triple = "x86_64-pc-linux-gnu"

%struct.pcre2_memctl = type { ptr, ptr, ptr }
%struct.sljit_compiler = type { i32, i32, ptr, ptr, ptr, ptr, ptr, ptr, ptr, ptr, ptr, ptr, ptr, ptr, i32, i32, i32, i32, i32, i64, i64, i64, i32 }
%struct.sljit_memory_fragment = type { ptr, i64, [1 x i8] }

@reg_map = internal constant [17 x i8] c"\00\00\06\07\01\08\0B\0A\0C\05\0D\0E\0F\03\04\02\09", align 16
@reg_lmap = internal constant [17 x i8] c"\00\00\06\07\01\00\03\02\04\05\05\06\07\03\04\02\01", align 16

; Function Attrs: nounwind uwtable
define internal ptr @pcre2_jit_malloc(i64 noundef %0, ptr noundef %1) #0 {
  %3 = alloca i64, align 8
  %4 = alloca ptr, align 8
  %5 = alloca ptr, align 8
  store i64 %0, ptr %3, align 8
  store ptr %1, ptr %4, align 8
  %6 = load ptr, ptr %4, align 8
  store ptr %6, ptr %5, align 8
  %7 = load ptr, ptr %5, align 8
  %8 = getelementptr inbounds %struct.pcre2_memctl, ptr %7, i32 0, i32 0
  %9 = load ptr, ptr %8, align 8
  %10 = load i64, ptr %3, align 8
  %11 = load ptr, ptr %5, align 8
  %12 = getelementptr inbounds %struct.pcre2_memctl, ptr %11, i32 0, i32 2
  %13 = load ptr, ptr %12, align 8
  %14 = call ptr %9(i64 noundef %10, ptr noundef %13)
  ret ptr %14
}

; Function Attrs: nounwind uwtable
define internal void @sljit_unaligned_store_sw(ptr noundef %0, i64 noundef %1) #0 {
  %3 = alloca ptr, align 8
  %4 = alloca i64, align 8
  store ptr %0, ptr %3, align 8
  store i64 %1, ptr %4, align 8
  %5 = load ptr, ptr %3, align 8
  call void @llvm.memcpy.p0.p0.i64(ptr align 1 %5, ptr align 8 %4, i64 8, i1 false)
  ret void
}

; Function Attrs: nounwind uwtable
define internal ptr @ensure_buf(ptr noundef %0, i64 noundef %1) #0 {
  %3 = alloca ptr, align 8
  %4 = alloca ptr, align 8
  %5 = alloca i64, align 8
  %6 = alloca ptr, align 8
  %7 = alloca ptr, align 8
  store ptr %0, ptr %4, align 8
  store i64 %1, ptr %5, align 8
  br label %8

8:                                                ; preds = %2
  br label %9

9:                                                ; preds = %8
  %10 = load ptr, ptr %4, align 8
  %11 = getelementptr inbounds %struct.sljit_compiler, ptr %10, i32 0, i32 12
  %12 = load ptr, ptr %11, align 8
  %13 = getelementptr inbounds %struct.sljit_memory_fragment, ptr %12, i32 0, i32 1
  %14 = load i64, ptr %13, align 8
  %15 = load i64, ptr %5, align 8
  %16 = add i64 %14, %15
  %17 = icmp ule i64 %16, sub (i64 4096, i64 sub nsw (i64 ptrtoint (ptr getelementptr inbounds (%struct.sljit_memory_fragment, ptr inttoptr (i64 16 to ptr), i32 0, i32 2) to i64), i64 16))
  br i1 %17, label %18, label %38

18:                                               ; preds = %9
  %19 = load ptr, ptr %4, align 8
  %20 = getelementptr inbounds %struct.sljit_compiler, ptr %19, i32 0, i32 12
  %21 = load ptr, ptr %20, align 8
  %22 = getelementptr inbounds %struct.sljit_memory_fragment, ptr %21, i32 0, i32 2
  %23 = getelementptr inbounds [1 x i8], ptr %22, i64 0, i64 0
  %24 = load ptr, ptr %4, align 8
  %25 = getelementptr inbounds %struct.sljit_compiler, ptr %24, i32 0, i32 12
  %26 = load ptr, ptr %25, align 8
  %27 = getelementptr inbounds %struct.sljit_memory_fragment, ptr %26, i32 0, i32 1
  %28 = load i64, ptr %27, align 8
  %29 = getelementptr inbounds i8, ptr %23, i64 %28
  store ptr %29, ptr %6, align 8
  %30 = load i64, ptr %5, align 8
  %31 = load ptr, ptr %4, align 8
  %32 = getelementptr inbounds %struct.sljit_compiler, ptr %31, i32 0, i32 12
  %33 = load ptr, ptr %32, align 8
  %34 = getelementptr inbounds %struct.sljit_memory_fragment, ptr %33, i32 0, i32 1
  %35 = load i64, ptr %34, align 8
  %36 = add i64 %35, %30
  store i64 %36, ptr %34, align 8
  %37 = load ptr, ptr %6, align 8
  store ptr %37, ptr %3, align 8
  br label %69

38:                                               ; preds = %9
  %39 = load ptr, ptr %4, align 8
  %40 = getelementptr inbounds %struct.sljit_compiler, ptr %39, i32 0, i32 10
  %41 = load ptr, ptr %40, align 8
  %42 = call ptr @pcre2_jit_malloc(i64 noundef 4096, ptr noundef %41)
  store ptr %42, ptr %7, align 8
  br label %43

43:                                               ; preds = %38
  %44 = load ptr, ptr %7, align 8
  %45 = icmp ne ptr %44, null
  %46 = xor i1 %45, true
  %47 = zext i1 %46 to i32
  %48 = sext i32 %47 to i64
  %49 = icmp ne i64 %48, 0
  br i1 %49, label %50, label %53

50:                                               ; preds = %43
  %51 = load ptr, ptr %4, align 8
  %52 = getelementptr inbounds %struct.sljit_compiler, ptr %51, i32 0, i32 0
  store i32 2, ptr %52, align 8
  store ptr null, ptr %3, align 8
  br label %69

53:                                               ; preds = %43
  br label %54

54:                                               ; preds = %53
  %55 = load ptr, ptr %4, align 8
  %56 = getelementptr inbounds %struct.sljit_compiler, ptr %55, i32 0, i32 12
  %57 = load ptr, ptr %56, align 8
  %58 = load ptr, ptr %7, align 8
  %59 = getelementptr inbounds %struct.sljit_memory_fragment, ptr %58, i32 0, i32 0
  store ptr %57, ptr %59, align 8
  %60 = load ptr, ptr %7, align 8
  %61 = load ptr, ptr %4, align 8
  %62 = getelementptr inbounds %struct.sljit_compiler, ptr %61, i32 0, i32 12
  store ptr %60, ptr %62, align 8
  %63 = load i64, ptr %5, align 8
  %64 = load ptr, ptr %7, align 8
  %65 = getelementptr inbounds %struct.sljit_memory_fragment, ptr %64, i32 0, i32 1
  store i64 %63, ptr %65, align 8
  %66 = load ptr, ptr %7, align 8
  %67 = getelementptr inbounds %struct.sljit_memory_fragment, ptr %66, i32 0, i32 2
  %68 = getelementptr inbounds [1 x i8], ptr %67, i64 0, i64 0
  store ptr %68, ptr %3, align 8
  br label %69

69:                                               ; preds = %54, %50, %18
  %70 = load ptr, ptr %3, align 8
  ret ptr %70
}

; Function Attrs: nounwind uwtable
define internal i32 @emit_load_imm64(ptr noundef %0, i32 noundef %1, i64 noundef %2) #0 {
  %4 = alloca i32, align 4
  %5 = alloca ptr, align 8
  %6 = alloca i32, align 4
  %7 = alloca i64, align 8
  %8 = alloca ptr, align 8
  store ptr %0, ptr %5, align 8
  store i32 %1, ptr %6, align 4
  store i64 %2, ptr %7, align 8
  %9 = load ptr, ptr %5, align 8
  %10 = call ptr @ensure_buf(ptr noundef %9, i64 noundef 11)
  store ptr %10, ptr %8, align 8
  br label %11

11:                                               ; preds = %3
  %12 = load ptr, ptr %8, align 8
  %13 = icmp ne ptr %12, null
  %14 = xor i1 %13, true
  %15 = zext i1 %14 to i32
  %16 = sext i32 %15 to i64
  %17 = icmp ne i64 %16, 0
  br i1 %17, label %18, label %22

18:                                               ; preds = %11
  %19 = load ptr, ptr %5, align 8
  %20 = getelementptr inbounds %struct.sljit_compiler, ptr %19, i32 0, i32 0
  %21 = load i32, ptr %20, align 8
  store i32 %21, ptr %4, align 4
  br label %53

22:                                               ; preds = %11
  br label %23

23:                                               ; preds = %22
  %24 = load ptr, ptr %8, align 8
  %25 = getelementptr inbounds i8, ptr %24, i32 1
  store ptr %25, ptr %8, align 8
  store i8 10, ptr %24, align 1
  %26 = load ptr, ptr %5, align 8
  %27 = getelementptr inbounds %struct.sljit_compiler, ptr %26, i32 0, i32 19
  %28 = load i64, ptr %27, align 8
  %29 = add i64 %28, 10
  store i64 %29, ptr %27, align 8
  %30 = load i32, ptr %6, align 4
  %31 = sext i32 %30 to i64
  %32 = getelementptr inbounds [17 x i8], ptr @reg_map, i64 0, i64 %31
  %33 = load i8, ptr %32, align 1
  %34 = zext i8 %33 to i32
  %35 = icmp sle i32 %34, 7
  %36 = select i1 %35, i32 0, i32 65
  %37 = or i32 72, %36
  %38 = trunc i32 %37 to i8
  %39 = load ptr, ptr %8, align 8
  %40 = getelementptr inbounds i8, ptr %39, i64 0
  store i8 %38, ptr %40, align 1
  %41 = load i32, ptr %6, align 4
  %42 = sext i32 %41 to i64
  %43 = getelementptr inbounds [17 x i8], ptr @reg_lmap, i64 0, i64 %42
  %44 = load i8, ptr %43, align 1
  %45 = zext i8 %44 to i32
  %46 = or i32 184, %45
  %47 = trunc i32 %46 to i8
  %48 = load ptr, ptr %8, align 8
  %49 = getelementptr inbounds i8, ptr %48, i64 1
  store i8 %47, ptr %49, align 1
  %50 = load ptr, ptr %8, align 8
  %51 = getelementptr inbounds i8, ptr %50, i64 2
  %52 = load i64, ptr %7, align 8
  call void @sljit_unaligned_store_sw(ptr noundef %51, i64 noundef %52)
  store i32 0, ptr %4, align 4
  br label %53

53:                                               ; preds = %23, %18
  %54 = load i32, ptr %4, align 4
  ret i32 %54
}