; Function Attrs: nounwind uwtable
define internal fastcc noundef i32 @emit_load_imm64(ptr nocapture noundef %0, i32 noundef %1, i64 noundef %2) unnamed_addr #0 {
  %4 = getelementptr inbounds i8, ptr %0, i64 88
  %5 = load ptr, ptr %4, align 8
  %6 = getelementptr inbounds i8, ptr %5, i64 8
  %7 = load i64, ptr %6, align 8
  %8 = add i64 %7, 11
  %9 = icmp ult i64 %8, 4081
  br i1 %9, label %10, label %13

10:                                               ; preds = %3
  %11 = getelementptr inbounds i8, ptr %5, i64 16
  %12 = getelementptr inbounds i8, ptr %11, i64 %7
  store i64 %8, ptr %6, align 8
  br label %23

13:                                               ; preds = %3
  %14 = getelementptr inbounds i8, ptr %0, i64 72
  %15 = load ptr, ptr %14, align 8
  %.val.i = load ptr, ptr %15, align 8
  %16 = getelementptr i8, ptr %15, i64 16
  %.val18.i = load ptr, ptr %16, align 8
  %17 = tail call ptr %.val.i(i64 noundef 4096, ptr noundef %.val18.i) #18
  %.not.i = icmp eq ptr %17, null
  br i1 %.not.i, label %22, label %18

18:                                               ; preds = %13
  %19 = load ptr, ptr %4, align 8
  store ptr %19, ptr %17, align 8
  store ptr %17, ptr %4, align 8
  %20 = getelementptr inbounds i8, ptr %17, i64 8
  store i64 11, ptr %20, align 8
  %21 = getelementptr inbounds i8, ptr %17, i64 16
  br label %23

22:                                               ; preds = %13
  store i32 2, ptr %0, align 8
  br label %38

23:                                               ; preds = %10, %18
  %.0.i.ph = phi ptr [ %21, %18 ], [ %12, %10 ]
  %24 = getelementptr inbounds i8, ptr %.0.i.ph, i64 1
  store i8 10, ptr %.0.i.ph, align 1
  %25 = getelementptr inbounds i8, ptr %0, i64 128
  %26 = load i64, ptr %25, align 8
  %27 = add i64 %26, 10
  store i64 %27, ptr %25, align 8
  %28 = sext i32 %1 to i64
  %29 = lshr i64 57887, %28
  %30 = trunc i64 %29 to i8
  %31 = and i8 %30, 1
  %32 = xor i8 %31, 73
  store i8 %32, ptr %24, align 1
  %33 = getelementptr inbounds [17 x i8], ptr @reg_lmap, i64 0, i64 %28
  %34 = load i8, ptr %33, align 1
  %35 = or i8 %34, -72
  %36 = getelementptr inbounds i8, ptr %.0.i.ph, i64 2
  store i8 %35, ptr %36, align 1
  %37 = getelementptr inbounds i8, ptr %.0.i.ph, i64 3
  store i64 %2, ptr %37, align 1
  br label %38

38:                                               ; preds = %23, %22
  %.0 = phi i32 [ 2, %22 ], [ 0, %23 ]
  ret i32 %.0
}